; Function Attrs: nounwind uwtable
define noalias noundef ptr @Abc_GraphGrid(i32 noundef %0) local_unnamed_addr #1 {
  %2 = shl nsw i32 %0, 2
  %3 = add nsw i32 %0, -1
  %4 = mul nsw i32 %2, %3
  %5 = tail call noalias dereferenceable_or_null(16) ptr @malloc(i64 noundef 16) #26
  %6 = add i32 %4, -1
  %or.cond.i = icmp ult i32 %6, 15
  %spec.store.select.i = select i1 %or.cond.i, i32 16, i32 %4
  %7 = getelementptr inbounds nuw i8, ptr %5, i64 4
  store i32 0, ptr %7, align 4, !tbaa !34
  store i32 %spec.store.select.i, ptr %5, align 8, !tbaa !36
  %.not.i = icmp eq i32 %spec.store.select.i, 0
  br i1 %.not.i, label %Vec_IntAlloc.exit, label %8

8:                                                ; preds = %1
  %9 = sext i32 %spec.store.select.i to i64
  %10 = shl nsw i64 %9, 2
  %11 = tail call noalias ptr @malloc(i64 noundef %10) #26
  br label %Vec_IntAlloc.exit

Vec_IntAlloc.exit:                                ; preds = %1, %8
  %12 = phi ptr [ %11, %8 ], [ null, %1 ]
  %13 = getelementptr inbounds nuw i8, ptr %5, i64 8
  store ptr %12, ptr %13, align 8, !tbaa !37
  %14 = icmp sgt i32 %0, 0
  br i1 %14, label %.preheader44.lr.ph, label %._crit_edge52

.preheader44.lr.ph:                               ; preds = %Vec_IntAlloc.exit
  %.not = icmp eq i32 %0, 1
  br label %.preheader44

.preheader44:                                     ; preds = %._crit_edge48, %.preheader44.lr.ph
  %.pre.i.i55 = phi ptr [ %12, %.preheader44.lr.ph ], [ %.pre.i.i3369, %._crit_edge48 ]
  %.02851 = phi i32 [ 0, %.preheader44.lr.ph ], [ %92, %._crit_edge48 ]
  br i1 %.not, label %._crit_edge, label %.lr.ph

.lr.ph:                                           ; preds = %.preheader44
  %15 = mul nuw nsw i32 %.02851, %0
  %invariant.op = add nuw i32 %15, 1
  br label %16

16:                                               ; preds = %.lr.ph, %Vec_IntPushTwo.exit
  %.pre.i.i3363 = phi ptr [ %.pre.i.i55, %.lr.ph ], [ %.pre.i.i3361, %Vec_IntPushTwo.exit ]
  %17 = phi ptr [ %.pre.i.i55, %.lr.ph ], [ %.pre.i.i60, %Vec_IntPushTwo.exit ]
  %.045 = phi i32 [ 0, %.lr.ph ], [ %52, %Vec_IntPushTwo.exit ]
  %18 = add nuw nsw i32 %.045, %15
  %.reass = add i32 %.045, %invariant.op
  %19 = load i32, ptr %7, align 4, !tbaa !34
  %20 = load i32, ptr %5, align 8, !tbaa !36
  %21 = icmp eq i32 %19, %20
  br i1 %21, label %22, label %Vec_IntPush.exit.i

22:                                               ; preds = %16
  %23 = icmp slt i32 %19, 16
  br i1 %23, label %24, label %29

24:                                               ; preds = %22
  %.not9.i.i.i = icmp eq ptr %17, null
  br i1 %.not9.i.i.i, label %27, label %25

25:                                               ; preds = %24
  %26 = tail call dereferenceable_or_null(64) ptr @realloc(ptr noundef nonnull %17, i64 noundef 64) #25
  br label %Vec_IntPush.exit.i.sink.split

27:                                               ; preds = %24
  %28 = tail call noalias dereferenceable_or_null(64) ptr @malloc(i64 noundef 64) #26
  br label %Vec_IntPush.exit.i.sink.split

29:                                               ; preds = %22
  %30 = shl nuw nsw i32 %19, 1
  %.not9.i9.i.i = icmp eq ptr %17, null
  %31 = zext nneg i32 %30 to i64
  %32 = shl nuw nsw i64 %31, 2
  br i1 %.not9.i9.i.i, label %35, label %33

33:                                               ; preds = %29
  %34 = tail call ptr @realloc(ptr noundef nonnull %17, i64 noundef %32) #25
  br label %Vec_IntPush.exit.i.sink.split

35:                                               ; preds = %29
  %36 = tail call noalias ptr @malloc(i64 noundef %32) #26
  br label %Vec_IntPush.exit.i.sink.split

Vec_IntPush.exit.i.sink.split:                    ; preds = %33, %35, %25, %27
  %.sink71 = phi ptr [ %26, %25 ], [ %28, %27 ], [ %34, %33 ], [ %36, %35 ]
  %.sink = phi i32 [ 16, %25 ], [ 16, %27 ], [ %30, %33 ], [ %30, %35 ]
  store ptr %.sink71, ptr %13, align 8, !tbaa !37
  store i32 %.sink, ptr %5, align 8, !tbaa !36
  br label %Vec_IntPush.exit.i

Vec_IntPush.exit.i:                               ; preds = %Vec_IntPush.exit.i.sink.split, %16
  %.pre.i.i3362 = phi ptr [ %.pre.i.i3363, %16 ], [ %.sink71, %Vec_IntPush.exit.i.sink.split ]
  %.pre.i.i58 = phi ptr [ %17, %16 ], [ %.sink71, %Vec_IntPush.exit.i.sink.split ]
  %37 = add nsw i32 %19, 1
  store i32 %37, ptr %7, align 4, !tbaa !34
  %38 = sext i32 %19 to i64
  %39 = getelementptr inbounds i32, ptr %.pre.i.i58, i64 %38
  store i32 %18, ptr %39, align 4, !tbaa !5
  %40 = load i32, ptr %7, align 4, !tbaa !34
  %41 = load i32, ptr %5, align 8, !tbaa !36
  %42 = icmp eq i32 %40, %41
  br i1 %42, label %Vec_IntPush.exit9.sink.split.i, label %Vec_IntPushTwo.exit

Vec_IntPush.exit9.sink.split.i:                   ; preds = %Vec_IntPush.exit.i
  %43 = icmp slt i32 %40, 16
  %44 = shl nuw nsw i32 %40, 1
  %45 = zext nneg i32 %44 to i64
  %46 = shl nuw nsw i64 %45, 2
  %.sink72 = select i1 %43, i64 64, i64 %46
  %.sink.i = select i1 %43, i32 16, i32 %44
  %47 = tail call ptr @realloc(ptr noundef nonnull %.pre.i.i58, i64 noundef %.sink72) #25
  store ptr %47, ptr %13, align 8, !tbaa !37
  store i32 %.sink.i, ptr %5, align 8, !tbaa !36
  %.pre = load i32, ptr %7, align 4, !tbaa !34
  br label %Vec_IntPushTwo.exit

Vec_IntPushTwo.exit:                              ; preds = %Vec_IntPush.exit.i, %Vec_IntPush.exit9.sink.split.i
  %.pre.i.i3361 = phi ptr [ %.pre.i.i3362, %Vec_IntPush.exit.i ], [ %47, %Vec_IntPush.exit9.sink.split.i ]
  %48 = phi i32 [ %40, %Vec_IntPush.exit.i ], [ %.pre, %Vec_IntPush.exit9.sink.split.i ]
  %.pre.i.i60 = phi ptr [ %.pre.i.i58, %Vec_IntPush.exit.i ], [ %47, %Vec_IntPush.exit9.sink.split.i ]
  %49 = add nsw i32 %48, 1
  store i32 %49, ptr %7, align 4, !tbaa !34
  %50 = sext i32 %48 to i64
  %51 = getelementptr inbounds i32, ptr %.pre.i.i60, i64 %50
  store i32 %.reass, ptr %51, align 4, !tbaa !5
  %52 = add nuw nsw i32 %.045, 1
  %exitcond.not = icmp eq i32 %52, %3
  br i1 %exitcond.not, label %._crit_edge, label %16, !llvm.loop !40

._crit_edge:                                      ; preds = %Vec_IntPushTwo.exit, %.preheader44
  %.pre.i.i3364 = phi ptr [ %.pre.i.i55, %.preheader44 ], [ %.pre.i.i3361, %Vec_IntPushTwo.exit ]
  %53 = icmp eq i32 %.02851, %3
  br i1 %53, label %._crit_edge52, label %.lr.ph47

.lr.ph47:                                         ; preds = %._crit_edge
  %54 = mul nuw nsw i32 %.02851, %0
  %invariant.op49 = add nuw i32 %54, %0
  br label %55

55:                                               ; preds = %.lr.ph47, %Vec_IntPushTwo.exit42
  %56 = phi ptr [ %.pre.i.i3364, %.lr.ph47 ], [ %.pre.i.i3369, %Vec_IntPushTwo.exit42 ]
  %.146 = phi i32 [ 0, %.lr.ph47 ], [ %91, %Vec_IntPushTwo.exit42 ]
  %57 = add nuw nsw i32 %.146, %54
  %.reass50 = add i32 %.146, %invariant.op49
  %58 = load i32, ptr %7, align 4, !tbaa !34
  %59 = load i32, ptr %5, align 8, !tbaa !36
  %60 = icmp eq i32 %58, %59
  br i1 %60, label %61, label %Vec_IntPush.exit.i34

61:                                               ; preds = %55
  %62 = icmp slt i32 %58, 16
  br i1 %62, label %63, label %68

63:                                               ; preds = %61
  %.not9.i.i.i40 = icmp eq ptr %56, null
  br i1 %.not9.i.i.i40, label %66, label %64

64:                                               ; preds = %63
  %65 = tail call dereferenceable_or_null(64) ptr @realloc(ptr noundef nonnull %56, i64 noundef 64) #25
  br label %Vec_IntPush.exit.i34.sink.split

66:                                               ; preds = %63
  %67 = tail call noalias dereferenceable_or_null(64) ptr @malloc(i64 noundef 64) #26
  br label %Vec_IntPush.exit.i34.sink.split

68:                                               ; preds = %61
  %69 = shl nuw nsw i32 %58, 1
  %.not9.i9.i.i39 = icmp eq ptr %56, null
  %70 = zext nneg i32 %69 to i64
  %71 = shl nuw nsw i64 %70, 2
  br i1 %.not9.i9.i.i39, label %74, label %72

72:                                               ; preds = %68
  %73 = tail call ptr @realloc(ptr noundef nonnull %56, i64 noundef %71) #25
  br label %Vec_IntPush.exit.i34.sink.split

74:                                               ; preds = %68
  %75 = tail call noalias ptr @malloc(i64 noundef %71) #26
  br label %Vec_IntPush.exit.i34.sink.split

Vec_IntPush.exit.i34.sink.split:                  ; preds = %72, %74, %64, %66
  %.sink74 = phi ptr [ %65, %64 ], [ %67, %66 ], [ %73, %72 ], [ %75, %74 ]
  %.sink73 = phi i32 [ 16, %64 ], [ 16, %66 ], [ %69, %72 ], [ %69, %74 ]
  store ptr %.sink74, ptr %13, align 8, !tbaa !37
  store i32 %.sink73, ptr %5, align 8, !tbaa !36
  br label %Vec_IntPush.exit.i34

Vec_IntPush.exit.i34:                             ; preds = %Vec_IntPush.exit.i34.sink.split, %55
  %.pre.i.i3367 = phi ptr [ %56, %55 ], [ %.sink74, %Vec_IntPush.exit.i34.sink.split ]
  %76 = add nsw i32 %58, 1
  store i32 %76, ptr %7, align 4, !tbaa !34
  %77 = sext i32 %58 to i64
  %78 = getelementptr inbounds i32, ptr %.pre.i.i3367, i64 %77
  store i32 %57, ptr %78, align 4, !tbaa !5
  %79 = load i32, ptr %7, align 4, !tbaa !34
  %80 = load i32, ptr %5, align 8, !tbaa !36
  %81 = icmp eq i32 %79, %80
  br i1 %81, label %Vec_IntPush.exit9.sink.split.i35, label %Vec_IntPushTwo.exit42

Vec_IntPush.exit9.sink.split.i35:                 ; preds = %Vec_IntPush.exit.i34
  %82 = icmp slt i32 %79, 16
  %83 = shl nuw nsw i32 %79, 1
  %84 = zext nneg i32 %83 to i64
  %85 = shl nuw nsw i64 %84, 2
  %.sink75 = select i1 %82, i64 64, i64 %85
  %.sink.i36 = select i1 %82, i32 16, i32 %83
  %86 = tail call ptr @realloc(ptr noundef nonnull %.pre.i.i3367, i64 noundef %.sink75) #25
  store ptr %86, ptr %13, align 8, !tbaa !37
  store i32 %.sink.i36, ptr %5, align 8, !tbaa !36
  %.pre70 = load i32, ptr %7, align 4, !tbaa !34
  br label %Vec_IntPushTwo.exit42

Vec_IntPushTwo.exit42:                            ; preds = %Vec_IntPush.exit.i34, %Vec_IntPush.exit9.sink.split.i35
  %87 = phi i32 [ %79, %Vec_IntPush.exit.i34 ], [ %.pre70, %Vec_IntPush.exit9.sink.split.i35 ]
  %.pre.i.i3369 = phi ptr [ %.pre.i.i3367, %Vec_IntPush.exit.i34 ], [ %86, %Vec_IntPush.exit9.sink.split.i35 ]
  %88 = add nsw i32 %87, 1
  store i32 %88, ptr %7, align 4, !tbaa !34
  %89 = sext i32 %87 to i64
  %90 = getelementptr inbounds i32, ptr %.pre.i.i3369, i64 %89
  store i32 %.reass50, ptr %90, align 4, !tbaa !5
  %91 = add nuw nsw i32 %.146, 1
  %exitcond54.not = icmp eq i32 %91, %0
  br i1 %exitcond54.not, label %._crit_edge48, label %55, !llvm.loop !41

._crit_edge48:                                    ; preds = %Vec_IntPushTwo.exit42
  %92 = add nuw nsw i32 %.02851, 1
  br label %.preheader44

._crit_edge52:                                    ; preds = %._crit_edge, %Vec_IntAlloc.exit
  ret ptr %5
}